target datalayout = "e-m:e-p270:32:32-p271:32:32-p272:64:64-i64:64-i128:128-f80:128-n8:16:32:64-S128"
target triple = "x86_64-pc-linux-gnu"

%class.rational = type { %class.mpq }
%class.mpq = type { %class.mpz, %class.mpz }
%class.mpz = type { i32, i8, ptr }
%class.svector.9 = type { %class.vector.10 }
%class.vector.10 = type { ptr }
%"class.dd::pdd_manager" = type { %class.svector, %class.vector.0, %class.ptr_hashtable, %class.hashtable, %class.hashtable.3, %class.map, %class.svector.9, ptr, %class.svector.9, %class.svector.9, %class.svector.9, %class.svector.9, %class.small_object_allocator, %class.svector.9, i32, %class.svector.9, %class.svector.9, %class.svector.11, i8, i8, i32, i32, %class.svector.9, %class.svector.9, %class.rational, %class.rational, i32, %class.rational, %class.svector.9, i32, %class.svector.9, %class.svector.9, %class.rational, %class.rational }
%class.svector = type { %class.vector }
%class.vector = type { ptr }
%class.vector.0 = type { ptr }
%class.ptr_hashtable = type { %class.core_hashtable.base, [4 x i8] }
%class.core_hashtable.base = type <{ ptr, i32, i32, i32 }>
%class.hashtable = type { %class.core_hashtable.base.2, [4 x i8] }
%class.core_hashtable.base.2 = type <{ ptr, i32, i32, i32 }>
%class.hashtable.3 = type { %class.core_hashtable.base.5, [4 x i8] }
%class.core_hashtable.base.5 = type <{ ptr, i32, i32, i32 }>
%class.map = type { %class.table2map }
%class.table2map = type { %class.core_hashtable.7 }
%class.core_hashtable.7 = type <{ ptr, i32, i32, i32, [4 x i8] }>
%class.small_object_allocator = type { [32 x ptr], [32 x ptr], i64 }
%class.svector.11 = type { %class.vector.12 }
%class.vector.12 = type { ptr }
%"struct.dd::pdd_manager::node" = type { i32, i32, i32, i32 }

; Function Attrs: mustprogress nounwind uwtable
define linkonce_odr hidden noundef zeroext i1 @_ZNK2dd11pdd_manager4node6is_valEv(ptr noundef nonnull align 4 dereferenceable(16) %0) #5 comdat align 2 {
  %2 = alloca ptr, align 8
  store ptr %0, ptr %2, align 8, !tbaa !124
  %3 = load ptr, ptr %2, align 8
  %4 = getelementptr inbounds nuw %"struct.dd::pdd_manager::node", ptr %3, i32 0, i32 2
  %5 = load i32, ptr %4, align 4, !tbaa !128
  %6 = icmp eq i32 %5, 0
  br i1 %6, label %7, label %17

7:                                                ; preds = %1
  %8 = getelementptr inbounds nuw %"struct.dd::pdd_manager::node", ptr %3, i32 0, i32 1
  %9 = load i32, ptr %8, align 4, !tbaa !127
  %10 = icmp ne i32 %9, 0
  br i1 %10, label %15, label %11

11:                                               ; preds = %7
  %12 = getelementptr inbounds nuw %"struct.dd::pdd_manager::node", ptr %3, i32 0, i32 3
  %13 = load i32, ptr %12, align 4, !tbaa !95
  %14 = icmp eq i32 %13, 0
  br label %15

15:                                               ; preds = %11, %7
  %16 = phi i1 [ true, %7 ], [ %14, %11 ]
  br label %17

17:                                               ; preds = %15, %1
  %18 = phi i1 [ false, %1 ], [ %16, %15 ]
  ret i1 %18
}

; Function Attrs: inlinehint mustprogress nounwind uwtable
define linkonce_odr hidden noundef i32 @_ZNK2dd11pdd_manager2loEj(ptr noundef nonnull align 8 dereferenceable(952) %0, i32 noundef %1) #8 comdat align 2 {
  %3 = alloca ptr, align 8
  %4 = alloca i32, align 4
  store ptr %0, ptr %3, align 8, !tbaa !3
  store i32 %1, ptr %4, align 4, !tbaa !8
  %5 = load ptr, ptr %3, align 8
  %6 = getelementptr inbounds nuw %"class.dd::pdd_manager", ptr %5, i32 0, i32 0
  %7 = load i32, ptr %4, align 4, !tbaa !8
  %8 = call noundef nonnull align 4 dereferenceable(16) ptr @_ZNK6vectorIN2dd11pdd_manager4nodeELb0EjEixEj(ptr noundef nonnull align 8 dereferenceable(8) %6, i32 noundef %7)
  %9 = getelementptr inbounds nuw %"struct.dd::pdd_manager::node", ptr %8, i32 0, i32 1
  %10 = load i32, ptr %9, align 4, !tbaa !127
  ret i32 %10
}

; Function Attrs: inlinehint mustprogress uwtable
define linkonce_odr hidden noundef zeroext i1 @_ZNK2dd11pdd_manager6is_valEj(ptr noundef nonnull align 8 dereferenceable(952) %0, i32 noundef %1) #7 comdat align 2 {
  %3 = alloca ptr, align 8
  %4 = alloca i32, align 4
  store ptr %0, ptr %3, align 8, !tbaa !3
  store i32 %1, ptr %4, align 4, !tbaa !8
  %5 = load ptr, ptr %3, align 8
  %6 = getelementptr inbounds nuw %"class.dd::pdd_manager", ptr %5, i32 0, i32 0
  %7 = load i32, ptr %4, align 4, !tbaa !8
  %8 = call noundef nonnull align 4 dereferenceable(16) ptr @_ZNK6vectorIN2dd11pdd_manager4nodeELb0EjEixEj(ptr noundef nonnull align 8 dereferenceable(8) %6, i32 noundef %7)
  %9 = call noundef zeroext i1 @_ZNK2dd11pdd_manager4node6is_valEv(ptr noundef nonnull align 4 dereferenceable(16) %8)
  ret i1 %9
}

; Function Attrs: mustprogress nounwind uwtable
define linkonce_odr hidden noundef nonnull align 4 dereferenceable(16) ptr @_ZNK6vectorIN2dd11pdd_manager4nodeELb0EjEixEj(ptr noundef nonnull align 8 dereferenceable(8) %0, i32 noundef %1) #5 comdat align 2 {
  %3 = alloca ptr, align 8
  %4 = alloca i32, align 4
  store ptr %0, ptr %3, align 8, !tbaa !108
  store i32 %1, ptr %4, align 4, !tbaa !8
  %5 = load ptr, ptr %3, align 8
  %6 = getelementptr inbounds nuw %class.vector, ptr %5, i32 0, i32 0
  %7 = load ptr, ptr %6, align 8, !tbaa !123
  %8 = load i32, ptr %4, align 4, !tbaa !8
  %9 = zext i32 %8 to i64
  %10 = getelementptr inbounds nuw %"struct.dd::pdd_manager::node", ptr %7, i64 %9
  ret ptr %10
}

; Function Attrs: mustprogress uwtable
define hidden noundef i32 @_ZNK2dd11pdd_manager13first_leadingEj(ptr noundef nonnull align 8 dereferenceable(952) %0, i32 noundef %1) #4 align 2 {
  %3 = alloca ptr, align 8
  %4 = alloca i32, align 4
  store ptr %0, ptr %3, align 8, !tbaa !3
  store i32 %1, ptr %4, align 4, !tbaa !8
  %5 = load ptr, ptr %3, align 8
  br label %6

6:                                                ; preds = %20, %2
  %7 = load i32, ptr %4, align 4, !tbaa !8
  %8 = call noundef zeroext i1 @_ZNK2dd11pdd_manager6is_valEj(ptr noundef nonnull align 8 dereferenceable(952) %5, i32 noundef %7)
  br i1 %8, label %18, label %9

9:                                                ; preds = %6
  %10 = load i32, ptr %4, align 4, !tbaa !8
  %11 = call noundef i32 @_ZNK2dd11pdd_manager2hiEj(ptr noundef nonnull align 8 dereferenceable(952) %5, i32 noundef %10)
  %12 = call noundef i32 @_ZNK2dd11pdd_manager6degreeEj(ptr noundef nonnull align 8 dereferenceable(952) %5, i32 noundef %11)
  %13 = add i32 %12, 1
  %14 = load i32, ptr %4, align 4, !tbaa !8
  %15 = call noundef i32 @_ZNK2dd11pdd_manager2loEj(ptr noundef nonnull align 8 dereferenceable(952) %5, i32 noundef %14)
  %16 = call noundef i32 @_ZNK2dd11pdd_manager6degreeEj(ptr noundef nonnull align 8 dereferenceable(952) %5, i32 noundef %15)
  %17 = icmp ult i32 %13, %16
  br label %18

18:                                               ; preds = %9, %6
  %19 = phi i1 [ false, %6 ], [ %17, %9 ]
  br i1 %19, label %20, label %23

20:                                               ; preds = %18
  %21 = load i32, ptr %4, align 4, !tbaa !8
  %22 = call noundef i32 @_ZNK2dd11pdd_manager2loEj(ptr noundef nonnull align 8 dereferenceable(952) %5, i32 noundef %21)
  store i32 %22, ptr %4, align 4, !tbaa !8
  br label %6, !llvm.loop !193

23:                                               ; preds = %18
  %24 = load i32, ptr %4, align 4, !tbaa !8
  ret i32 %24
}

; Function Attrs: inlinehint mustprogress nounwind uwtable
define linkonce_odr hidden noundef i32 @_ZNK2dd11pdd_manager2hiEj(ptr noundef nonnull align 8 dereferenceable(952) %0, i32 noundef %1) #8 comdat align 2 {
  %3 = alloca ptr, align 8
  %4 = alloca i32, align 4
  store ptr %0, ptr %3, align 8, !tbaa !3
  store i32 %1, ptr %4, align 4, !tbaa !8
  %5 = load ptr, ptr %3, align 8
  %6 = getelementptr inbounds nuw %"class.dd::pdd_manager", ptr %5, i32 0, i32 0
  %7 = load i32, ptr %4, align 4, !tbaa !8
  %8 = call noundef nonnull align 4 dereferenceable(16) ptr @_ZNK6vectorIN2dd11pdd_manager4nodeELb0EjEixEj(ptr noundef nonnull align 8 dereferenceable(8) %6, i32 noundef %7)
  %9 = getelementptr inbounds nuw %"struct.dd::pdd_manager::node", ptr %8, i32 0, i32 2
  %10 = load i32, ptr %9, align 4, !tbaa !128
  ret i32 %10
}

; Function Attrs: mustprogress uwtable
define hidden noundef i32 @_ZNK2dd11pdd_manager12next_leadingEj(ptr noundef nonnull align 8 dereferenceable(952) %0, i32 noundef %1) #4 align 2 {
  %3 = alloca ptr, align 8
  %4 = alloca i32, align 4
  store ptr %0, ptr %3, align 8, !tbaa !3
  store i32 %1, ptr %4, align 4, !tbaa !8
  %5 = load ptr, ptr %3, align 8
  %6 = load i32, ptr %4, align 4, !tbaa !8
  %7 = call noundef i32 @_ZNK2dd11pdd_manager2hiEj(ptr noundef nonnull align 8 dereferenceable(952) %5, i32 noundef %6)
  %8 = call noundef i32 @_ZNK2dd11pdd_manager13first_leadingEj(ptr noundef nonnull align 8 dereferenceable(952) %5, i32 noundef %7)
  ret i32 %8
}