; Function Attrs: mustprogress uwtable
define hidden noundef i32 @_ZNK2dd11pdd_manager12next_leadingEj(ptr noundef nonnull align 8 dereferenceable(952) %0, i32 noundef %1) local_unnamed_addr #3 align 2 {
  %3 = load ptr, ptr %0, align 8, !tbaa !91
  %4 = zext i32 %1 to i64
  %5 = getelementptr inbounds nuw %"struct.dd::pdd_manager::node", ptr %3, i64 %4, i32 2
  br label %6

6:                                                ; preds = %26, %2
  %7 = phi ptr [ %3, %2 ], [ %27, %26 ]
  %.0.i.in = phi ptr [ %5, %2 ], [ %28, %26 ]
  %.0.i = load i32, ptr %.0.i.in, align 4, !tbaa !83
  %8 = zext i32 %.0.i to i64
  %9 = getelementptr inbounds nuw %"struct.dd::pdd_manager::node", ptr %7, i64 %8
  %10 = getelementptr inbounds nuw i8, ptr %9, i64 8
  %11 = load i32, ptr %10, align 4, !tbaa !92
  %12 = icmp eq i32 %11, 0
  br i1 %12, label %13, label %_ZNK2dd11pdd_manager6is_valEj.exit.thread5.i

13:                                               ; preds = %6
  %14 = getelementptr inbounds nuw i8, ptr %9, i64 4
  %15 = load i32, ptr %14, align 4, !tbaa !94
  %.not.i.i.i = icmp eq i32 %15, 0
  br i1 %.not.i.i.i, label %_ZNK2dd11pdd_manager6is_valEj.exit.i, label %_ZNK2dd11pdd_manager13first_leadingEj.exit

_ZNK2dd11pdd_manager6is_valEj.exit.i:             ; preds = %13
  %16 = getelementptr inbounds nuw i8, ptr %9, i64 12
  %17 = load i32, ptr %16, align 4, !tbaa !98
  %18 = icmp eq i32 %17, 0
  br i1 %18, label %_ZNK2dd11pdd_manager13first_leadingEj.exit, label %_ZNK2dd11pdd_manager6is_valEj.exit.thread5.i

_ZNK2dd11pdd_manager6is_valEj.exit.thread5.i:     ; preds = %_ZNK2dd11pdd_manager6is_valEj.exit.i, %6
  %19 = tail call noundef i32 @_ZNK2dd11pdd_manager6degreeEj(ptr noundef nonnull align 8 dereferenceable(952) %0, i32 noundef %11)
  %20 = add i32 %19, 1
  %21 = load ptr, ptr %0, align 8, !tbaa !91
  %22 = getelementptr inbounds nuw %"struct.dd::pdd_manager::node", ptr %21, i64 %8, i32 1
  %23 = load i32, ptr %22, align 4, !tbaa !94
  %24 = tail call noundef i32 @_ZNK2dd11pdd_manager6degreeEj(ptr noundef nonnull align 8 dereferenceable(952) %0, i32 noundef %23)
  %25 = icmp ult i32 %20, %24
  br i1 %25, label %26, label %_ZNK2dd11pdd_manager13first_leadingEj.exit

26:                                               ; preds = %_ZNK2dd11pdd_manager6is_valEj.exit.thread5.i
  %27 = load ptr, ptr %0, align 8, !tbaa !91
  %28 = getelementptr inbounds nuw %"struct.dd::pdd_manager::node", ptr %27, i64 %8, i32 1
  br label %6, !llvm.loop !211

_ZNK2dd11pdd_manager13first_leadingEj.exit:       ; preds = %13, %_ZNK2dd11pdd_manager6is_valEj.exit.i, %_ZNK2dd11pdd_manager6is_valEj.exit.thread5.i
  ret i32 %.0.i
}